target datalayout = "e-m:e-p270:32:32-p271:32:32-p272:64:64-i64:64-i128:128-f80:128-n8:16:32:64-S128"
target triple = "x86_64-pc-linux-gnu"

%struct.WarpedMotionParams = type { [8 x i32], i16, i16, i16, i16, i8, i8 }
%struct.MB_MODE_INFO = type <{ i8, i8, i8, i8, i32, [2 x %union.int_mv], [2 x i8], [2 x i8], %union.int_interpfilters, i8, i8, i8, i8, %struct.WarpedMotionParams, i8, i8, [6 x i8], %struct.INTERINTER_COMPOUND_DATA, [2 x i8], %struct.FILTER_INTRA_MODE_INFO, i8, i8, %struct.PALETTE_MODE_INFO, i8, i8, [16 x i8], i8, [4 x i8], i16, [7 x i8] }>
%union.int_mv = type { i32 }
%union.int_interpfilters = type { i32 }
%struct.INTERINTER_COMPOUND_DATA = type { ptr, i8, i8, i8, i8 }
%struct.FILTER_INTRA_MODE_INFO = type { i8, i8 }
%struct.PALETTE_MODE_INFO = type { [24 x i16], [2 x i8] }
%struct.buf_2d = type { ptr, ptr, i32, i32, i32 }
%struct.macroblockd = type { i32, i32, i32, i8, [3 x %struct.macroblockd_plane], %struct.TileInfo, ptr, i8, i8, i8, i8, ptr, ptr, ptr, ptr, ptr, i32, i32, i32, i32, i32, [2 x ptr], ptr, [3 x ptr], [3 x [32 x i8]], ptr, [32 x i8], ptr, ptr, [32 x i8], [3 x %struct.WienerInfo], [3 x %struct.SgrprojInfo], i8, i8, [29 x [8 x %struct.candidate_mv]], [29 x [8 x i16]], i8, i8, [8 x i8], ptr, i32, [8 x i32], [8 x i32], i32, i32, ptr, ptr, i8, [4 x i8], [4 x i8], [7 x i8], [32768 x i8], %struct.cfl_ctx, [2 x i16], ptr, [2 x ptr] }
%struct.macroblockd_plane = type { i8, i32, i32, %struct.buf_2d, [2 x %struct.buf_2d], ptr, ptr, [8 x [2 x i16]], ptr, i8, i8, [8 x [19 x ptr]], [8 x [19 x ptr]] }
%struct.TileInfo = type { i32, i32, i32, i32, i32, i32 }
%struct.WienerInfo = type { [8 x i16], [8 x i16] }
%struct.SgrprojInfo = type { i32, [2 x i32] }
%struct.candidate_mv = type { %union.int_mv, %union.int_mv }
%struct.cfl_ctx = type { [1024 x i16], [1024 x i16], [2 x i32], i32, [2 x [32 x i16]], i32, i32, i32, i32, i32, i32 }
%struct.BUFFER_SET = type { [3 x ptr], [3 x i32] }

@interintra_to_intra_mode = internal constant [4 x i8] c"\00\01\02\09", align 1
@max_txsize_rect_lookup = internal constant [22 x i8] c"\00\05\06\01\07\08\02\09\0A\03\0B\0C\04\04\04\04\0D\0E\0F\10\11\12", align 16

; Function Attrs: nounwind uwtable
define internal zeroext i8 @get_plane_block_size(i8 noundef zeroext %0, i32 noundef %1, i32 noundef %2) #0 {
  %4 = alloca i8, align 1
  %5 = alloca i32, align 4
  %6 = alloca i32, align 4
  store i8 %0, ptr %4, align 1
  store i32 %1, ptr %5, align 4
  store i32 %2, ptr %6, align 4
  %7 = load i8, ptr %4, align 1
  %8 = zext i8 %7 to i64
  %9 = getelementptr inbounds [22 x [2 x [2 x i8]]], ptr @ss_size_lookup, i64 0, i64 %8
  %10 = load i32, ptr %5, align 4
  %11 = sext i32 %10 to i64
  %12 = getelementptr inbounds [2 x [2 x i8]], ptr %9, i64 0, i64 %11
  %13 = load i32, ptr %6, align 4
  %14 = sext i32 %13 to i64
  %15 = getelementptr inbounds [2 x i8], ptr %12, i64 0, i64 %14
  %16 = load i8, ptr %15, align 1
  ret i8 %16
}

; Function Attrs: nounwind uwtable
define hidden void @av1_build_intra_predictors_for_interintra(ptr noundef %0, ptr noundef %1, i8 noundef zeroext %2, i32 noundef %3, ptr noundef %4, ptr noundef %5, i32 noundef %6) #0 {
  %8 = alloca ptr, align 8
  %9 = alloca ptr, align 8
  %10 = alloca i8, align 1
  %11 = alloca i32, align 4
  %12 = alloca ptr, align 8
  %13 = alloca ptr, align 8
  %14 = alloca i32, align 4
  %15 = alloca ptr, align 8
  %16 = alloca i32, align 4
  %17 = alloca i32, align 4
  %18 = alloca i8, align 1
  %19 = alloca i8, align 1
  store ptr %0, ptr %8, align 8
  store ptr %1, ptr %9, align 8
  store i8 %2, ptr %10, align 1
  store i32 %3, ptr %11, align 4
  store ptr %4, ptr %12, align 8
  store ptr %5, ptr %13, align 8
  store i32 %6, ptr %14, align 4
  %20 = load ptr, ptr %9, align 8
  %21 = getelementptr inbounds nuw %struct.macroblockd, ptr %20, i32 0, i32 4
  %22 = load i32, ptr %11, align 4
  %23 = sext i32 %22 to i64
  %24 = getelementptr inbounds [3 x %struct.macroblockd_plane], ptr %21, i64 0, i64 %23
  store ptr %24, ptr %15, align 8
  %25 = load ptr, ptr %9, align 8
  %26 = getelementptr inbounds nuw %struct.macroblockd, ptr %25, i32 0, i32 4
  %27 = load i32, ptr %11, align 4
  %28 = sext i32 %27 to i64
  %29 = getelementptr inbounds [3 x %struct.macroblockd_plane], ptr %26, i64 0, i64 %28
  %30 = getelementptr inbounds nuw %struct.macroblockd_plane, ptr %29, i32 0, i32 1
  %31 = load i32, ptr %30, align 4
  store i32 %31, ptr %16, align 4
  %32 = load ptr, ptr %9, align 8
  %33 = getelementptr inbounds nuw %struct.macroblockd, ptr %32, i32 0, i32 4
  %34 = load i32, ptr %11, align 4
  %35 = sext i32 %34 to i64
  %36 = getelementptr inbounds [3 x %struct.macroblockd_plane], ptr %33, i64 0, i64 %35
  %37 = getelementptr inbounds nuw %struct.macroblockd_plane, ptr %36, i32 0, i32 2
  %38 = load i32, ptr %37, align 8
  store i32 %38, ptr %17, align 4
  %39 = load i8, ptr %10, align 1
  %40 = load i32, ptr %16, align 4
  %41 = load i32, ptr %17, align 4
  %42 = call zeroext i8 @get_plane_block_size(i8 noundef zeroext %39, i32 noundef %40, i32 noundef %41)
  store i8 %42, ptr %18, align 1
  %43 = load ptr, ptr %9, align 8
  %44 = getelementptr inbounds nuw %struct.macroblockd, ptr %43, i32 0, i32 6
  %45 = load ptr, ptr %44, align 8
  %46 = getelementptr inbounds ptr, ptr %45, i64 0
  %47 = load ptr, ptr %46, align 8
  %48 = getelementptr inbounds nuw %struct.MB_MODE_INFO, ptr %47, i32 0, i32 14
  %49 = load i8, ptr %48, align 8
  %50 = zext i8 %49 to i64
  %51 = getelementptr inbounds [4 x i8], ptr @interintra_to_intra_mode, i64 0, i64 %50
  %52 = load i8, ptr %51, align 1
  store i8 %52, ptr %19, align 1
  %53 = load ptr, ptr %8, align 8
  %54 = load ptr, ptr %9, align 8
  %55 = load ptr, ptr %15, align 8
  %56 = getelementptr inbounds nuw %struct.macroblockd_plane, ptr %55, i32 0, i32 9
  %57 = load i8, ptr %56, align 8
  %58 = zext i8 %57 to i32
  %59 = load ptr, ptr %15, align 8
  %60 = getelementptr inbounds nuw %struct.macroblockd_plane, ptr %59, i32 0, i32 10
  %61 = load i8, ptr %60, align 1
  %62 = zext i8 %61 to i32
  %63 = load i8, ptr %18, align 1
  %64 = zext i8 %63 to i64
  %65 = getelementptr inbounds [22 x i8], ptr @max_txsize_rect_lookup, i64 0, i64 %64
  %66 = load i8, ptr %65, align 1
  %67 = load i8, ptr %19, align 1
  %68 = load ptr, ptr %12, align 8
  %69 = getelementptr inbounds nuw %struct.BUFFER_SET, ptr %68, i32 0, i32 0
  %70 = load i32, ptr %11, align 4
  %71 = sext i32 %70 to i64
  %72 = getelementptr inbounds [3 x ptr], ptr %69, i64 0, i64 %71
  %73 = load ptr, ptr %72, align 8
  %74 = load ptr, ptr %12, align 8
  %75 = getelementptr inbounds nuw %struct.BUFFER_SET, ptr %74, i32 0, i32 1
  %76 = load i32, ptr %11, align 4
  %77 = sext i32 %76 to i64
  %78 = getelementptr inbounds [3 x i32], ptr %75, i64 0, i64 %77
  %79 = load i32, ptr %78, align 4
  %80 = load ptr, ptr %13, align 8
  %81 = load i32, ptr %14, align 4
  %82 = load i32, ptr %11, align 4
  call void @av1_predict_intra_block(ptr noundef %53, ptr noundef %54, i32 noundef %58, i32 noundef %62, i8 noundef zeroext %66, i8 noundef zeroext %67, i32 noundef 0, i32 noundef 0, i8 noundef zeroext 5, ptr noundef %73, i32 noundef %79, ptr noundef %80, i32 noundef %81, i32 noundef 0, i32 noundef 0, i32 noundef %82)
  ret void
}