; Function Attrs: nounwind uwtable
define hidden void @av1_build_intra_predictors_for_interintra(ptr noundef %0, ptr noundef %1, i8 noundef zeroext %2, i32 noundef %3, ptr nocapture noundef readonly %4, ptr noundef %5, i32 noundef %6) local_unnamed_addr #4 {
  %8 = getelementptr inbounds nuw i8, ptr %1, i64 16
  %9 = sext i32 %3 to i64
  %10 = getelementptr inbounds [3 x %struct.macroblockd_plane], ptr %8, i64 0, i64 %9
  %11 = getelementptr inbounds nuw i8, ptr %10, i64 4
  %12 = load i32, ptr %11, align 4
  %13 = getelementptr inbounds nuw i8, ptr %10, i64 8
  %14 = load i32, ptr %13, align 8
  %15 = zext i8 %2 to i64
  %16 = sext i32 %12 to i64
  %17 = sext i32 %14 to i64
  %18 = getelementptr inbounds [22 x [2 x [2 x i8]]], ptr @ss_size_lookup, i64 0, i64 %15, i64 %16, i64 %17
  %19 = load i8, ptr %18, align 1
  %20 = getelementptr inbounds nuw i8, ptr %1, i64 7864
  %21 = load ptr, ptr %20, align 8
  %22 = load ptr, ptr %21, align 8
  %23 = getelementptr inbounds nuw i8, ptr %22, i64 72
  %24 = load i8, ptr %23, align 8
  %25 = zext i8 %24 to i64
  %26 = getelementptr inbounds [4 x i8], ptr @interintra_to_intra_mode, i64 0, i64 %25
  %27 = load i8, ptr %26, align 1
  %28 = getelementptr inbounds nuw i8, ptr %10, i64 168
  %29 = load i8, ptr %28, align 8
  %30 = zext i8 %29 to i32
  %31 = getelementptr inbounds nuw i8, ptr %10, i64 169
  %32 = load i8, ptr %31, align 1
  %33 = zext i8 %32 to i32
  %34 = zext i8 %19 to i64
  %35 = getelementptr inbounds [22 x i8], ptr @max_txsize_rect_lookup, i64 0, i64 %34
  %36 = load i8, ptr %35, align 1
  %37 = getelementptr inbounds [3 x ptr], ptr %4, i64 0, i64 %9
  %38 = load ptr, ptr %37, align 8
  %39 = getelementptr inbounds nuw i8, ptr %4, i64 24
  %40 = getelementptr inbounds [3 x i32], ptr %39, i64 0, i64 %9
  %41 = load i32, ptr %40, align 4
  tail call void @av1_predict_intra_block(ptr noundef %0, ptr noundef %1, i32 noundef %30, i32 noundef %33, i8 noundef zeroext %36, i8 noundef zeroext %27, i32 noundef 0, i32 noundef 0, i8 noundef zeroext 5, ptr noundef %38, i32 noundef %41, ptr noundef %5, i32 noundef %6, i32 noundef 0, i32 noundef 0, i32 noundef %3) #18
  ret void
}